; Function Attrs: mustprogress uwtable
define internal void @_ZN5folly6detail12_GLOBAL__N_120EventBasePollerEpoll8delEventEPNS1_19EventBasePollerImpl5EventE(ptr noundef nonnull readonly align 8 captures(none) dereferenceable(288) %0, ptr noundef readonly captures(none) %1) unnamed_addr #2 align 2 personality ptr @__gxx_personality_v0 {
  %3 = alloca %"class.google::LogMessageFatal", align 8
  %4 = alloca %"class.google::ErrnoLogMessage", align 8
  %5 = alloca { i64, i64 }, align 8
  %6 = getelementptr i8, ptr %1, i64 16
  %.val = load ptr, ptr %6, align 8, !tbaa !89
  %7 = icmp eq ptr %.val, null
  br i1 %7, label %8, label %.critedge, !prof !95

8:                                                ; preds = %2
  call void @llvm.lifetime.start.p0(i64 16, ptr nonnull %3) #26
  call void @_ZN6google15LogMessageFatalC1EPKci(ptr noundef nonnull align 8 dereferenceable(16) %3, ptr noundef nonnull @.str.5, i32 noundef 428)
  %9 = invoke noundef nonnull align 8 dereferenceable(8) ptr @_ZN6google10LogMessage6streamEv(ptr noundef nonnull align 8 dereferenceable(16) %3)
          to label %10 unwind label %12

10:                                               ; preds = %8
  %11 = invoke noundef nonnull align 8 dereferenceable(8) ptr @_ZSt16__ostream_insertIcSt11char_traitsIcEERSt13basic_ostreamIT_T0_ES6_PKS3_l(ptr noundef nonnull align 8 dereferenceable(8) %9, ptr noundef nonnull @.str.43, i64 noundef 41)
          to label %_ZStlsISt11char_traitsIcEERSt13basic_ostreamIcT_ES5_PKc.exit unwind label %12

_ZStlsISt11char_traitsIcEERSt13basic_ostreamIcT_ES5_PKc.exit: ; preds = %10
  call void @_ZN6google15LogMessageFatalD1Ev(ptr noundef nonnull align 8 dereferenceable(16) %3) #34
  unreachable

12:                                               ; preds = %10, %8
  %13 = landingpad { ptr, i32 }
          cleanup
  call void @_ZN6google15LogMessageFatalD1Ev(ptr noundef nonnull align 8 dereferenceable(16) %3) #34
  unreachable

.critedge:                                        ; preds = %2
  %14 = getelementptr inbounds nuw i8, ptr %1, i64 28
  %15 = load i8, ptr %14, align 4, !tbaa !91, !range !44, !noundef !45
  %16 = trunc nuw i8 %15 to i1
  br i1 %16, label %17, label %.critedge21

17:                                               ; preds = %.critedge
  %18 = getelementptr inbounds nuw i8, ptr %0, i64 256
  %19 = load i32, ptr %18, align 8, !tbaa !105
  %20 = getelementptr inbounds nuw i8, ptr %1, i64 24
  %21 = load i32, ptr %20, align 8, !tbaa !90
  %22 = tail call i32 @epoll_ctl(i32 noundef %19, i32 noundef 2, i32 noundef %21, ptr noundef null) #26
  %.not.not = icmp eq i32 %22, 0
  br i1 %.not.not, label %.critedge21, label %23, !prof !33

23:                                               ; preds = %17
  call void @llvm.lifetime.start.p0(i64 16, ptr nonnull %4) #26
  call void @llvm.lifetime.start.p0(i64 16, ptr nonnull %5) #26
  store i64 ptrtoint (ptr @_ZN6google10LogMessage9SendToLogEv to i64), ptr %5, align 8, !tbaa !17
  %.fca.1.gep = getelementptr inbounds nuw i8, ptr %5, i64 8
  store i64 0, ptr %.fca.1.gep, align 8, !tbaa !17
  call void @_ZN6google15ErrnoLogMessageC1EPKciiiMNS_10LogMessageEFvvE(ptr noundef nonnull align 8 dereferenceable(16) %4, ptr noundef nonnull @.str.5, i32 noundef 434, i32 noundef 3, i32 noundef 0, ptr noundef nonnull byval({ i64, i64 }) align 8 %5)
  call void @llvm.lifetime.end.p0(i64 16, ptr nonnull %5) #26
  %24 = invoke noundef nonnull align 8 dereferenceable(8) ptr @_ZN6google10LogMessage6streamEv(ptr noundef nonnull align 8 dereferenceable(16) %4)
          to label %25 unwind label %27

25:                                               ; preds = %23
  %26 = invoke noundef nonnull align 8 dereferenceable(8) ptr @_ZSt16__ostream_insertIcSt11char_traitsIcEERSt13basic_ostreamIT_T0_ES6_PKS3_l(ptr noundef nonnull align 8 dereferenceable(8) %24, ptr noundef nonnull @.str.42, i64 noundef 23)
          to label %.critedge20 unwind label %27

.critedge20:                                      ; preds = %25
  call void @_ZN6google15ErrnoLogMessageD1Ev(ptr noundef nonnull align 8 dereferenceable(16) %4) #26
  call void @llvm.lifetime.end.p0(i64 16, ptr nonnull %4) #26
  br label %.critedge21

.critedge21:                                      ; preds = %.critedge20, %17, %.critedge
  ret void

27:                                               ; preds = %25, %23
  %28 = landingpad { ptr, i32 }
          cleanup
  call void @_ZN6google15ErrnoLogMessageD1Ev(ptr noundef nonnull align 8 dereferenceable(16) %4) #26
  call void @llvm.lifetime.end.p0(i64 16, ptr nonnull %4) #26
  resume { ptr, i32 } %28
}